target datalayout = "e-m:e-p270:32:32-p271:32:32-p272:64:64-i64:64-i128:128-f80:128-n8:16:32:64-S128"
target triple = "x86_64-pc-linux-gnu"

%"class.ZXing::QRCode::Writer" = type { i32, i32, i8, i32, i8, i32 }

; Function Attrs: mustprogress nounwind uwtable
define void @_ZN5ZXing6QRCode6WriterC2Ev(ptr noundef nonnull align 4 dereferenceable(24) %0) unnamed_addr #0 align 2 {
  %2 = alloca ptr, align 8
  store ptr %0, ptr %2, align 8, !tbaa !3
  %3 = load ptr, ptr %2, align 8
  %4 = getelementptr inbounds nuw %"class.ZXing::QRCode::Writer", ptr %3, i32 0, i32 0
  store i32 4, ptr %4, align 4, !tbaa !8
  %5 = getelementptr inbounds nuw %"class.ZXing::QRCode::Writer", ptr %3, i32 0, i32 1
  store i32 0, ptr %5, align 4, !tbaa !14
  %6 = getelementptr inbounds nuw %"class.ZXing::QRCode::Writer", ptr %3, i32 0, i32 2
  store i8 0, ptr %6, align 4, !tbaa !15
  %7 = getelementptr inbounds nuw %"class.ZXing::QRCode::Writer", ptr %3, i32 0, i32 3
  store i32 0, ptr %7, align 4, !tbaa !16
  %8 = getelementptr inbounds nuw %"class.ZXing::QRCode::Writer", ptr %3, i32 0, i32 4
  store i8 0, ptr %8, align 4, !tbaa !17
  %9 = getelementptr inbounds nuw %"class.ZXing::QRCode::Writer", ptr %3, i32 0, i32 5
  store i32 -1, ptr %9, align 4, !tbaa !18
  ret void
}