; Function Attrs: mustprogress nofree norecurse nosync nounwind willreturn memory(argmem: write) uwtable
define void @_ZN5ZXing6QRCode6WriterC2Ev(ptr noundef nonnull writeonly align 4 captures(none) dereferenceable(24) initializes((0, 9), (12, 17), (20, 24)) %0) unnamed_addr #0 align 2 {
  store i32 4, ptr %0, align 4, !tbaa !3
  %2 = getelementptr inbounds nuw i8, ptr %0, i64 4
  store i32 0, ptr %2, align 4, !tbaa !11
  %3 = getelementptr inbounds nuw i8, ptr %0, i64 8
  store i8 0, ptr %3, align 4, !tbaa !12
  %4 = getelementptr inbounds nuw i8, ptr %0, i64 12
  store i32 0, ptr %4, align 4, !tbaa !13
  %5 = getelementptr inbounds nuw i8, ptr %0, i64 16
  store i8 0, ptr %5, align 4, !tbaa !14
  %6 = getelementptr inbounds nuw i8, ptr %0, i64 20
  store i32 -1, ptr %6, align 4, !tbaa !15
  ret void
}